target datalayout = "e-m:e-p270:32:32-p271:32:32-p272:64:64-i64:64-i128:128-f80:128-n8:16:32:64-S128"
target triple = "x86_64-pc-linux-gnu"

%class.MarkedFileReader = type { %class.FileReader, i64 }
%class.FileReader = type { ptr, ptr }

@_ZN16MarkedFileReaderC1EP8_IO_FILE = hidden unnamed_addr alias void (ptr, ptr), ptr @_ZN16MarkedFileReaderC2EP8_IO_FILE
@_ZN16MarkedFileReaderD1Ev = hidden unnamed_addr alias void (ptr), ptr @_ZN16MarkedFileReaderD2Ev

; Function Attrs: mustprogress nounwind uwtable
define hidden noundef i32 @_ZN7ElfFile19gnu_debuglink_crc32EjPhm(i32 noundef %0, ptr noundef %1, i64 noundef %2) #1 align 2 {
  %4 = alloca i32, align 4
  %5 = alloca ptr, align 8
  %6 = alloca i64, align 8
  %7 = alloca ptr, align 8
  store i32 %0, ptr %4, align 4
  store ptr %1, ptr %5, align 8
  store i64 %2, ptr %6, align 8
  %8 = load i32, ptr %4, align 4
  %9 = xor i32 %8, -1
  store i32 %9, ptr %4, align 4
  %10 = load ptr, ptr %5, align 8
  %11 = load i64, ptr %6, align 8
  %12 = getelementptr inbounds i8, ptr %10, i64 %11
  store ptr %12, ptr %7, align 8
  br label %13

13:                                               ; preds = %30, %3
  %14 = load ptr, ptr %5, align 8
  %15 = load ptr, ptr %7, align 8
  %16 = icmp ult ptr %14, %15
  br i1 %16, label %17, label %33

17:                                               ; preds = %13
  %18 = load i32, ptr %4, align 4
  %19 = load ptr, ptr %5, align 8
  %20 = load i8, ptr %19, align 1
  %21 = zext i8 %20 to i32
  %22 = xor i32 %18, %21
  %23 = and i32 %22, 255
  %24 = zext i32 %23 to i64
  %25 = getelementptr inbounds [256 x i32], ptr @_ZL11crc32_table, i64 0, i64 %24
  %26 = load i32, ptr %25, align 4
  %27 = load i32, ptr %4, align 4
  %28 = lshr i32 %27, 8
  %29 = xor i32 %26, %28
  store i32 %29, ptr %4, align 4
  br label %30

30:                                               ; preds = %17
  %31 = load ptr, ptr %5, align 8
  %32 = getelementptr inbounds i8, ptr %31, i32 1
  store ptr %32, ptr %5, align 8
  br label %13, !llvm.loop !12

33:                                               ; preds = %13
  %34 = load i32, ptr %4, align 4
  %35 = xor i32 %34, -1
  ret i32 %35
}

; Function Attrs: mustprogress nounwind uwtable
define hidden noundef i64 @_ZN10FileReader11read_bufferEPvm(ptr noundef nonnull align 8 dereferenceable(16) %0, ptr noundef %1, i64 noundef %2) #1 align 2 {
  %4 = alloca ptr, align 8
  %5 = alloca ptr, align 8
  %6 = alloca i64, align 8
  store ptr %0, ptr %4, align 8
  store ptr %1, ptr %5, align 8
  store i64 %2, ptr %6, align 8
  %7 = load ptr, ptr %4, align 8
  %8 = load ptr, ptr %5, align 8
  %9 = load i64, ptr %6, align 8
  %10 = getelementptr inbounds %class.FileReader, ptr %7, i32 0, i32 1
  %11 = load ptr, ptr %10, align 8
  %12 = call i64 @fread(ptr noundef %8, i64 noundef 1, i64 noundef %9, ptr noundef %11)
  ret i64 %12
}

; Function Attrs: mustprogress nounwind uwtable
define hidden noundef i32 @_ZN7ElfFile12get_file_crcEP8_IO_FILE(ptr noundef %0) #1 align 2 {
  %2 = alloca ptr, align 8
  %3 = alloca i32, align 4
  %4 = alloca [8192 x i8], align 16
  %5 = alloca %class.MarkedFileReader, align 8
  %6 = alloca i64, align 8
  store ptr %0, ptr %2, align 8
  store i32 0, ptr %3, align 4
  %7 = load ptr, ptr %2, align 8
  call void @_ZN16MarkedFileReaderC1EP8_IO_FILE(ptr noundef nonnull align 8 dereferenceable(24) %5, ptr noundef %7)
  br label %8

8:                                                ; preds = %15, %1
  br label %9

9:                                                ; preds = %8
  %10 = getelementptr inbounds [8192 x i8], ptr %4, i64 0, i64 0
  %11 = call noundef i64 @_ZN10FileReader11read_bufferEPvm(ptr noundef nonnull align 8 dereferenceable(16) %5, ptr noundef %10, i64 noundef 8192)
  store i64 %11, ptr %6, align 8
  %12 = load i64, ptr %6, align 8
  %13 = icmp eq i64 %12, 0
  br i1 %13, label %14, label %15

14:                                               ; preds = %9
  br label %20

15:                                               ; preds = %9
  %16 = load i32, ptr %3, align 4
  %17 = getelementptr inbounds [8192 x i8], ptr %4, i64 0, i64 0
  %18 = load i64, ptr %6, align 8
  %19 = call noundef i32 @_ZN7ElfFile19gnu_debuglink_crc32EjPhm(i32 noundef %16, ptr noundef %17, i64 noundef %18)
  store i32 %19, ptr %3, align 4
  br label %8, !llvm.loop !11

20:                                               ; preds = %14
  %21 = load i32, ptr %3, align 4
  call void @_ZN16MarkedFileReaderD1Ev(ptr noundef nonnull align 8 dereferenceable(24) %5) #7
  ret i32 %21
}