; Function Attrs: mustprogress nofree nounwind uwtable
define hidden noundef i32 @_ZN7ElfFile12get_file_crcEP8_IO_FILE(ptr nocapture noundef %0) local_unnamed_addr #3 align 2 {
  %2 = alloca [8192 x i8], align 16
  %3 = tail call i64 @ftell(ptr noundef %0)
  %4 = call noundef i64 @fread(ptr noundef nonnull %2, i64 noundef 1, i64 noundef 8192, ptr noundef %0)
  %5 = icmp eq i64 %4, 0
  br i1 %5, label %._crit_edge, label %.lr.ph

.lr.ph:                                           ; preds = %1, %_ZN7ElfFile19gnu_debuglink_crc32EjPhm.exit
  %6 = phi i64 [ %19, %_ZN7ElfFile19gnu_debuglink_crc32EjPhm.exit ], [ %4, %1 ]
  %.06 = phi i32 [ %.0.lcssa.i, %_ZN7ElfFile19gnu_debuglink_crc32EjPhm.exit ], [ 0, %1 ]
  %7 = getelementptr inbounds i8, ptr %2, i64 %6
  %8 = icmp sgt i64 %6, 0
  br i1 %8, label %.lr.ph.preheader.i, label %_ZN7ElfFile19gnu_debuglink_crc32EjPhm.exit

.lr.ph.preheader.i:                               ; preds = %.lr.ph
  %9 = xor i32 %.06, -1
  br label %.lr.ph.i

.lr.ph.i:                                         ; preds = %.lr.ph.i, %.lr.ph.preheader.i
  %.011.i = phi i32 [ %15, %.lr.ph.i ], [ %9, %.lr.ph.preheader.i ]
  %.0910.i = phi ptr [ %16, %.lr.ph.i ], [ %2, %.lr.ph.preheader.i ]
  %10 = load i8, ptr %.0910.i, align 1
  %.0.tr.i = trunc i32 %.011.i to i8
  %.narrow.i = xor i8 %10, %.0.tr.i
  %11 = zext i8 %.narrow.i to i64
  %12 = getelementptr inbounds [256 x i32], ptr @_ZL11crc32_table, i64 0, i64 %11
  %13 = load i32, ptr %12, align 4
  %14 = lshr i32 %.011.i, 8
  %15 = xor i32 %13, %14
  %16 = getelementptr inbounds i8, ptr %.0910.i, i64 1
  %17 = icmp ult ptr %16, %7
  br i1 %17, label %.lr.ph.i, label %._crit_edge.loopexit.i, !llvm.loop !11

._crit_edge.loopexit.i:                           ; preds = %.lr.ph.i
  %18 = xor i32 %15, -1
  br label %_ZN7ElfFile19gnu_debuglink_crc32EjPhm.exit

_ZN7ElfFile19gnu_debuglink_crc32EjPhm.exit:       ; preds = %.lr.ph, %._crit_edge.loopexit.i
  %.0.lcssa.i = phi i32 [ %.06, %.lr.ph ], [ %18, %._crit_edge.loopexit.i ]
  %19 = call noundef i64 @fread(ptr noundef nonnull %2, i64 noundef 1, i64 noundef 8192, ptr noundef %0)
  %20 = icmp eq i64 %19, 0
  br i1 %20, label %._crit_edge, label %.lr.ph, !llvm.loop !12

._crit_edge:                                      ; preds = %_ZN7ElfFile19gnu_debuglink_crc32EjPhm.exit, %1
  %.0.lcssa = phi i32 [ 0, %1 ], [ %.0.lcssa.i, %_ZN7ElfFile19gnu_debuglink_crc32EjPhm.exit ]
  %.not.i = icmp eq i64 %3, -1
  br i1 %.not.i, label %_ZN16MarkedFileReaderD2Ev.exit, label %21

21:                                               ; preds = %._crit_edge
  %22 = call i32 @fseek(ptr noundef %0, i64 noundef %3, i32 noundef 0)
  br label %_ZN16MarkedFileReaderD2Ev.exit

_ZN16MarkedFileReaderD2Ev.exit:                   ; preds = %._crit_edge, %21
  ret i32 %.0.lcssa
}